; ModuleID = '16/1372.c'
source_filename = "16/1372.c"
target datalayout = "e-m:e-p270:32:32-p271:32:32-p272:64:64-i64:64-f80:128-n8:16:32:64-S128"
target triple = "x86_64-pc-linux-gnu"

@.str = private unnamed_addr constant [3 x i8] c"%d\00", align 1
@.str.1 = private unnamed_addr constant [2 x i8] c"0\00", align 1

; Function Attrs: noinline nounwind uwtable
define dso_local i32 @main() #0 {
  %1 = alloca i32, align 4
  %2 = alloca i32, align 4
  %3 = alloca i32, align 4
  %4 = alloca i32, align 4
  %5 = alloca i32, align 4
  %6 = alloca i32, align 4
  store i32 0, i32* %1, align 4
  store i32 0, i32* %3, align 4
  store i32 0, i32* %6, align 4
  %7 = call i32 (i8*, ...) @__isoc99_scanf(i8* getelementptr inbounds ([3 x i8], [3 x i8]* @.str, i64 0, i64 0), i32* %2)
  %8 = load i32, i32* %2, align 4
  %9 = icmp eq i32 %8, 0
  br i1 %9, label %10, label %12

10:                                               ; preds = %0
  %11 = call i32 (i8*, ...) @printf(i8* getelementptr inbounds ([2 x i8], [2 x i8]* @.str.1, i64 0, i64 0))
  br label %55

12:                                               ; preds = %0
  store i32 1, i32* %5, align 4
  br label %13

13:                                               ; preds = %35, %12
  %14 = load i32, i32* %5, align 4
  %15 = icmp sle i32 %14, 5
  br i1 %15, label %16, label %38

16:                                               ; preds = %13
  %17 = load i32, i32* %2, align 4
  %18 = srem i32 %17, 10
  store i32 %18, i32* %4, align 4
  %19 = load i32, i32* %4, align 4
  %20 = icmp eq i32 %19, 0
  br i1 %20, label %21, label %24

21:                                               ; preds = %16
  %22 = load i32, i32* %6, align 4
  %23 = add nsw i32 %22, 1
  store i32 %23, i32* %6, align 4
  br label %24

24:                                               ; preds = %21, %16
  %25 = load i32, i32* %2, align 4
  %26 = sdiv i32 %25, 10
  store i32 %26, i32* %2, align 4
  %27 = load i32, i32* %3, align 4
  %28 = mul nsw i32 %27, 10
  %29 = load i32, i32* %4, align 4
  %30 = add nsw i32 %28, %29
  store i32 %30, i32* %3, align 4
  %31 = load i32, i32* %2, align 4
  %32 = icmp eq i32 %31, 0
  br i1 %32, label %33, label %34

33:                                               ; preds = %24
  br label %38

34:                                               ; preds = %24
  br label %35

35:                                               ; preds = %34
  %36 = load i32, i32* %5, align 4
  %37 = add nsw i32 %36, 1
  store i32 %37, i32* %5, align 4
  br label %13

38:                                               ; preds = %33, %13
  store i32 0, i32* %5, align 4
  br label %39

39:                                               ; preds = %49, %38
  %40 = load i32, i32* %5, align 4
  %41 = load i32, i32* %6, align 4
  %42 = icmp slt i32 %40, %41
  br i1 %42, label %43, label %52

43:                                               ; preds = %39
  %44 = load i32, i32* %6, align 4
  %45 = icmp eq i32 %44, 0
  br i1 %45, label %46, label %47

46:                                               ; preds = %43
  br label %52

47:                                               ; preds = %43
  %48 = call i32 (i8*, ...) @printf(i8* getelementptr inbounds ([2 x i8], [2 x i8]* @.str.1, i64 0, i64 0))
  br label %49

49:                                               ; preds = %47
  %50 = load i32, i32* %5, align 4
  %51 = add nsw i32 %50, 1
  store i32 %51, i32* %5, align 4
  br label %39

52:                                               ; preds = %46, %39
  %53 = load i32, i32* %3, align 4
  %54 = call i32 (i8*, ...) @printf(i8* getelementptr inbounds ([3 x i8], [3 x i8]* @.str, i64 0, i64 0), i32 %53)
  br label %55

55:                                               ; preds = %52, %10
  ret i32 0
}

declare dso_local i32 @__isoc99_scanf(i8*, ...) #1

declare dso_local i32 @printf(i8*, ...) #1


!llvm.module.flags = !{!0}
!llvm.ident = !{!1}

!0 = !{i32 1, !"wchar_size", i32 4}
!1 = !{!"clang version 10.0.0-4ubuntu1 "}
